target datalayout = "e-m:e-p270:32:32-p271:32:32-p272:64:64-i64:64-i128:128-f80:128-n8:16:32:64-S128"
target triple = "x86_64-pc-linux-gnu"

%struct._zval_struct = type { %union._zend_value, %union.anon, %union.anon.2 }
%union._zend_value = type { i64 }
%union.anon = type { i32 }
%union.anon.2 = type { i32 }
%struct._pdo_dbh_t = type { ptr, ptr, ptr, ptr, i32, ptr, i64, [6 x i8], i32, i32, i32, ptr, i64, i32, [2 x ptr], ptr, ptr, %struct._zval_struct, ptr, %struct._zval_struct, i32 }
%struct.pdo_sqlite_db_handle = type { ptr, %struct.pdo_sqlite_error_info, ptr, ptr }
%struct.pdo_sqlite_error_info = type { ptr, i32, i32, ptr }

@.str.12 = private unnamed_addr constant [111 x i8] c"/home/dtcxzyw/WorkSpace/Projects/compilers/llvm-opt-benchmark/bench/php/php-src/ext/pdo_sqlite/sqlite_driver.c\00", align 1
@.str.16 = private unnamed_addr constant [6 x i8] c"BEGIN\00", align 1

; Function Attrs: nounwind uwtable
define internal zeroext i1 @sqlite_handle_begin(ptr noundef %0) #0 {
  %2 = alloca i1, align 1
  %3 = alloca ptr, align 8
  %4 = alloca ptr, align 8
  store ptr %0, ptr %3, align 8
  %5 = load ptr, ptr %3, align 8
  %6 = getelementptr inbounds %struct._pdo_dbh_t, ptr %5, i32 0, i32 1
  %7 = load ptr, ptr %6, align 8
  store ptr %7, ptr %4, align 8
  %8 = load ptr, ptr %4, align 8
  %9 = getelementptr inbounds %struct.pdo_sqlite_db_handle, ptr %8, i32 0, i32 0
  %10 = load ptr, ptr %9, align 8
  %11 = call i32 @sqlite3_exec(ptr noundef %10, ptr noundef @.str.16, ptr noundef null, ptr noundef null, ptr noundef null)
  %12 = icmp ne i32 %11, 0
  br i1 %12, label %13, label %16

13:                                               ; preds = %1
  %14 = load ptr, ptr %3, align 8
  %15 = call i32 @_pdo_sqlite_error(ptr noundef %14, ptr noundef null, ptr noundef @.str.12, i32 noundef 242)
  store i1 false, ptr %2, align 1
  br label %17

16:                                               ; preds = %1
  store i1 true, ptr %2, align 1
  br label %17

17:                                               ; preds = %16, %13
  %18 = load i1, ptr %2, align 1
  ret i1 %18
}