; Function Attrs: nounwind uwtable
define internal noundef zeroext i1 @sqlite_handle_begin(ptr noundef %0) #0 {
  %2 = getelementptr inbounds i8, ptr %0, i64 8
  %3 = load ptr, ptr %2, align 8
  %4 = load ptr, ptr %3, align 8
  %5 = tail call i32 @sqlite3_exec(ptr noundef %4, ptr noundef nonnull @.str.16, ptr noundef null, ptr noundef null, ptr noundef null) #11
  %.not = icmp eq i32 %5, 0
  br i1 %.not, label %8, label %6

6:                                                ; preds = %1
  %7 = tail call i32 @_pdo_sqlite_error(ptr noundef nonnull %0, ptr noundef null, ptr noundef nonnull @.str.12, i32 noundef 242)
  br label %8

8:                                                ; preds = %1, %6
  ret i1 %.not
}